target datalayout = "e-m:e-p270:32:32-p271:32:32-p272:64:64-i64:64-i128:128-f80:128-n8:16:32:64-S128"
target triple = "x86_64-pc-linux-gnu"

%class.QString = type { %struct.QArrayDataPointer }
%struct.QArrayDataPointer = type { ptr, ptr, i64 }
%class.QObject = type { ptr, %class.QScopedPointer }
%class.QScopedPointer = type { ptr }
%struct.nstime_t = type { i64, i32 }
%class.QBrush = type { %"class.std::unique_ptr" }
%"class.std::unique_ptr" = type { %"struct.std::__uniq_ptr_data" }
%"struct.std::__uniq_ptr_data" = type { %"class.std::__uniq_ptr_impl" }
%"class.std::__uniq_ptr_impl" = type { %"class.std::tuple" }
%"class.std::tuple" = type { %"struct.std::_Tuple_impl" }
%"struct.std::_Tuple_impl" = type { %"struct.std::_Head_base.28" }
%"struct.std::_Head_base.28" = type { ptr }
%class.IOGraph = type <{ %class.QObject, i32, i32, ptr, %class.QString, %class.QString, i8, i8, i8, [5 x i8], ptr, ptr, %class.QString, %class.QString, %class.QBrush, i32, [4 x i8], %class.QString, i32, i32, %struct.nstime_t, i8, [7 x i8], %"class.std::vector", i32, [4 x i8] }>
%"class.std::vector" = type { %"struct.std::_Vector_base" }
%"struct.std::_Vector_base" = type { %"struct.std::_Vector_base<_io_graph_item_t, std::allocator<_io_graph_item_t>>::_Vector_impl" }
%"struct.std::_Vector_base<_io_graph_item_t, std::allocator<_io_graph_item_t>>::_Vector_impl" = type { %"struct.std::_Vector_base<_io_graph_item_t, std::allocator<_io_graph_item_t>>::_Vector_impl_data" }
%"struct.std::_Vector_base<_io_graph_item_t, std::allocator<_io_graph_item_t>>::_Vector_impl_data" = type { ptr, ptr, ptr }

; Function Attrs: mustprogress null_pointer_is_valid sspstrong uwtable
define void @_ZN7IOGraph10setVisibleEb(ptr noundef align 8 dereferenceable_or_null(252) %0, i1 noundef zeroext %1) #3 align 2 {
  %3 = alloca ptr, align 8
  %4 = alloca i8, align 1
  %5 = alloca i8, align 1
  store ptr %0, ptr %3, align 8
  %6 = zext i1 %1 to i8
  store i8 %6, ptr %4, align 1
  %7 = load ptr, ptr %3, align 8
  call void @llvm.lifetime.start.p0(i64 1, ptr %5) #2
  %8 = getelementptr inbounds nuw %class.IOGraph, ptr %7, i32 0, i32 7
  %9 = load i8, ptr %8, align 1, !range !6, !noundef !7
  %10 = trunc i8 %9 to i1
  %11 = zext i1 %10 to i8
  store i8 %11, ptr %5, align 1
  %12 = load i8, ptr %4, align 1, !range !6, !noundef !7
  %13 = trunc i8 %12 to i1
  %14 = getelementptr inbounds nuw %class.IOGraph, ptr %7, i32 0, i32 7
  %15 = zext i1 %13 to i8
  store i8 %15, ptr %14, align 1
  %16 = getelementptr inbounds nuw %class.IOGraph, ptr %7, i32 0, i32 10
  %17 = load ptr, ptr %16, align 8
  %18 = icmp ne ptr %17, null
  br i1 %18, label %19, label %25

19:                                               ; preds = %2
  %20 = getelementptr inbounds nuw %class.IOGraph, ptr %7, i32 0, i32 10
  %21 = load ptr, ptr %20, align 8
  %22 = getelementptr inbounds nuw %class.IOGraph, ptr %7, i32 0, i32 7
  %23 = load i8, ptr %22, align 1, !range !6, !noundef !7
  %24 = trunc i8 %23 to i1
  call void @_ZN12QCPLayerable10setVisibleEb(ptr noundef align 8 dereferenceable_or_null(57) %21, i1 noundef zeroext %24)
  br label %25

25:                                               ; preds = %19, %2
  %26 = getelementptr inbounds nuw %class.IOGraph, ptr %7, i32 0, i32 11
  %27 = load ptr, ptr %26, align 8
  %28 = icmp ne ptr %27, null
  br i1 %28, label %29, label %35

29:                                               ; preds = %25
  %30 = getelementptr inbounds nuw %class.IOGraph, ptr %7, i32 0, i32 11
  %31 = load ptr, ptr %30, align 8
  %32 = getelementptr inbounds nuw %class.IOGraph, ptr %7, i32 0, i32 7
  %33 = load i8, ptr %32, align 1, !range !6, !noundef !7
  %34 = trunc i8 %33 to i1
  call void @_ZN12QCPLayerable10setVisibleEb(ptr noundef align 8 dereferenceable_or_null(57) %31, i1 noundef zeroext %34)
  br label %35

35:                                               ; preds = %29, %25
  %36 = load i8, ptr %5, align 1, !range !6, !noundef !7
  %37 = trunc i8 %36 to i1
  %38 = zext i1 %37 to i32
  %39 = getelementptr inbounds nuw %class.IOGraph, ptr %7, i32 0, i32 7
  %40 = load i8, ptr %39, align 1, !range !6, !noundef !7
  %41 = trunc i8 %40 to i1
  %42 = zext i1 %41 to i32
  %43 = icmp ne i32 %38, %42
  br i1 %43, label %44, label %56

44:                                               ; preds = %35
  %45 = getelementptr inbounds nuw %class.IOGraph, ptr %7, i32 0, i32 7
  %46 = load i8, ptr %45, align 1, !range !6, !noundef !7
  %47 = trunc i8 %46 to i1
  br i1 %47, label %48, label %54

48:                                               ; preds = %44
  %49 = getelementptr inbounds nuw %class.IOGraph, ptr %7, i32 0, i32 8
  %50 = load i8, ptr %49, align 2, !range !6, !noundef !7
  %51 = trunc i8 %50 to i1
  br i1 %51, label %52, label %54

52:                                               ; preds = %48
  %53 = getelementptr inbounds nuw %class.IOGraph, ptr %7, i32 0, i32 8
  store i8 0, ptr %53, align 2
  call void @_ZN7IOGraph12requestRetapEv(ptr noundef align 8 dereferenceable_or_null(252) %7)
  br label %55

54:                                               ; preds = %48, %44
  call void @_ZN7IOGraph13requestRecalcEv(ptr noundef align 8 dereferenceable_or_null(252) %7)
  br label %55

55:                                               ; preds = %54, %52
  br label %56

56:                                               ; preds = %55, %35
  call void @llvm.lifetime.end.p0(i64 1, ptr %5) #2
  ret void
}