; Function Attrs: mustprogress null_pointer_is_valid sspstrong uwtable
define void @_ZN7IOGraph10setVisibleEb(ptr noundef align 8 dereferenceable_or_null(252) %0, i1 noundef zeroext %1) local_unnamed_addr #2 align 2 {
  %3 = zext i1 %1 to i8
  %4 = getelementptr inbounds nuw i8, ptr %0, i64 81
  %5 = load i8, ptr %4, align 1, !range !12, !noundef !13
  store i8 %3, ptr %4, align 1
  %6 = getelementptr inbounds nuw i8, ptr %0, i64 88
  %7 = load ptr, ptr %6, align 8
  %.not = icmp eq ptr %7, null
  br i1 %.not, label %9, label %8

8:                                                ; preds = %2
  tail call void @_ZN12QCPLayerable10setVisibleEb(ptr noundef nonnull align 8 dereferenceable_or_null(57) %7, i1 noundef zeroext %1)
  %.pre5.pre = load i8, ptr %4, align 1, !range !12
  br label %9

9:                                                ; preds = %8, %2
  %.pre5 = phi i8 [ %.pre5.pre, %8 ], [ %3, %2 ]
  %10 = getelementptr inbounds nuw i8, ptr %0, i64 96
  %11 = load ptr, ptr %10, align 8
  %.not3 = icmp eq ptr %11, null
  br i1 %.not3, label %14, label %12

12:                                               ; preds = %9
  %13 = trunc nuw i8 %.pre5 to i1
  tail call void @_ZN12QCPLayerable10setVisibleEb(ptr noundef nonnull align 8 dereferenceable_or_null(57) %11, i1 noundef zeroext %13)
  %.pre = load i8, ptr %4, align 1, !range !12
  br label %14

14:                                               ; preds = %12, %9
  %15 = phi i8 [ %.pre, %12 ], [ %.pre5, %9 ]
  %.not4 = icmp eq i8 %5, %15
  br i1 %.not4, label %24, label %16

16:                                               ; preds = %14
  %17 = trunc nuw i8 %15 to i1
  br i1 %17, label %18, label %23

18:                                               ; preds = %16
  %19 = getelementptr inbounds nuw i8, ptr %0, i64 82
  %20 = load i8, ptr %19, align 2, !range !12, !noundef !13
  %21 = trunc nuw i8 %20 to i1
  br i1 %21, label %22, label %23

22:                                               ; preds = %18
  store i8 0, ptr %19, align 2
  tail call void @_ZN7IOGraph12requestRetapEv(ptr noundef align 8 dereferenceable_or_null(252) %0)
  br label %24

23:                                               ; preds = %18, %16
  tail call void @_ZN7IOGraph13requestRecalcEv(ptr noundef align 8 dereferenceable_or_null(252) %0)
  br label %24

24:                                               ; preds = %22, %23, %14
  ret void
}